target datalayout = "e-m:e-p270:32:32-p271:32:32-p272:64:64-i64:64-i128:128-f80:128-n8:16:32:64-S128"
target triple = "x86_64-unknown-linux-gnu"

; Function Attrs: mustprogress nounwind uwtable
define noundef i32 @_ZN6icu_756number4impl18PatternStringUtils18resolveSignDisplayE18UNumberSignDisplayNS1_6SignumE(i32 noundef %signDisplay, i32 noundef %signum) #0 align 2 {
entry:
  %retval = alloca i32, align 4
  %signDisplay.addr = alloca i32, align 4
  %signum.addr = alloca i32, align 4
  store i32 %signDisplay, ptr %signDisplay.addr, align 4
  store i32 %signum, ptr %signum.addr, align 4
  %0 = load i32, ptr %signDisplay.addr, align 4
  switch i32 %0, label %sw.default20 [
    i32 0, label %sw.bb
    i32 3, label %sw.bb
    i32 1, label %sw.bb3
    i32 4, label %sw.bb3
    i32 5, label %sw.bb8
    i32 6, label %sw.bb8
    i32 7, label %sw.bb14
    i32 8, label %sw.bb14
    i32 2, label %sw.bb19
  ]

sw.bb:                                            ; preds = %entry, %entry
  %1 = load i32, ptr %signum.addr, align 4
  switch i32 %1, label %sw.default [
    i32 0, label %sw.bb1
    i32 1, label %sw.bb1
    i32 2, label %sw.bb2
    i32 3, label %sw.bb2
  ]

sw.bb1:                                           ; preds = %sw.bb, %sw.bb
  store i32 2, ptr %retval, align 4
  br label %return

sw.bb2:                                           ; preds = %sw.bb, %sw.bb
  store i32 0, ptr %retval, align 4
  br label %return

sw.default:                                       ; preds = %sw.bb
  br label %sw.epilog

sw.epilog:                                        ; preds = %sw.default
  br label %sw.epilog21

sw.bb3:                                           ; preds = %entry, %entry
  %2 = load i32, ptr %signum.addr, align 4
  switch i32 %2, label %sw.default6 [
    i32 0, label %sw.bb4
    i32 1, label %sw.bb4
    i32 2, label %sw.bb5
    i32 3, label %sw.bb5
  ]

sw.bb4:                                           ; preds = %sw.bb3, %sw.bb3
  store i32 2, ptr %retval, align 4
  br label %return

sw.bb5:                                           ; preds = %sw.bb3, %sw.bb3
  store i32 1, ptr %retval, align 4
  br label %return

sw.default6:                                      ; preds = %sw.bb3
  br label %sw.epilog7

sw.epilog7:                                       ; preds = %sw.default6
  br label %sw.epilog21

sw.bb8:                                           ; preds = %entry, %entry
  %3 = load i32, ptr %signum.addr, align 4
  switch i32 %3, label %sw.default12 [
    i32 0, label %sw.bb9
    i32 1, label %sw.bb10
    i32 2, label %sw.bb10
    i32 3, label %sw.bb11
  ]

sw.bb9:                                           ; preds = %sw.bb8
  store i32 2, ptr %retval, align 4
  br label %return

sw.bb10:                                          ; preds = %sw.bb8, %sw.bb8
  store i32 0, ptr %retval, align 4
  br label %return

sw.bb11:                                          ; preds = %sw.bb8
  store i32 1, ptr %retval, align 4
  br label %return

sw.default12:                                     ; preds = %sw.bb8
  br label %sw.epilog13

sw.epilog13:                                      ; preds = %sw.default12
  br label %sw.epilog21

sw.bb14:                                          ; preds = %entry, %entry
  %4 = load i32, ptr %signum.addr, align 4
  switch i32 %4, label %sw.default17 [
    i32 0, label %sw.bb15
    i32 1, label %sw.bb16
    i32 2, label %sw.bb16
    i32 3, label %sw.bb16
  ]

sw.bb15:                                          ; preds = %sw.bb14
  store i32 2, ptr %retval, align 4
  br label %return

sw.bb16:                                          ; preds = %sw.bb14, %sw.bb14, %sw.bb14
  store i32 0, ptr %retval, align 4
  br label %return

sw.default17:                                     ; preds = %sw.bb14
  br label %sw.epilog18

sw.epilog18:                                      ; preds = %sw.default17
  br label %sw.epilog21

sw.bb19:                                          ; preds = %entry
  store i32 0, ptr %retval, align 4
  br label %return

sw.default20:                                     ; preds = %entry
  br label %sw.epilog21

sw.epilog21:                                      ; preds = %sw.default20, %sw.epilog18, %sw.epilog13, %sw.epilog7, %sw.epilog
  call void @abort() #10
  unreachable

return:                                           ; preds = %sw.bb19, %sw.bb16, %sw.bb15, %sw.bb11, %sw.bb10, %sw.bb9, %sw.bb5, %sw.bb4, %sw.bb2, %sw.bb1
  %5 = load i32, ptr %retval, align 4
  ret i32 %5
}