; Function Attrs: mustprogress nounwind uwtable
define noundef i32 @_ZN6icu_756number4impl18PatternStringUtils18resolveSignDisplayE18UNumberSignDisplayNS1_6SignumE(i32 noundef %signDisplay, i32 noundef %signum) local_unnamed_addr #0 align 2 {
entry:
  switch i32 %signDisplay, label %sw.epilog21 [
    i32 0, label %sw.bb
    i32 3, label %sw.bb
    i32 1, label %sw.bb3
    i32 4, label %sw.bb3
    i32 5, label %sw.bb8
    i32 6, label %sw.bb8
    i32 7, label %sw.bb14
    i32 8, label %sw.bb14
    i32 2, label %return
  ]

sw.bb:                                            ; preds = %entry, %entry
  %0 = icmp ult i32 %signum, 4
  br i1 %0, label %return.sink.split, label %sw.epilog21

sw.bb3:                                           ; preds = %entry, %entry
  %1 = icmp ult i32 %signum, 4
  br i1 %1, label %return.sink.split, label %sw.epilog21

sw.bb8:                                           ; preds = %entry, %entry
  %2 = icmp ult i32 %signum, 4
  br i1 %2, label %return.sink.split, label %sw.epilog21

sw.bb14:                                          ; preds = %entry, %entry
  %3 = icmp ult i32 %signum, 4
  br i1 %3, label %return.sink.split, label %sw.epilog21

sw.epilog21:                                      ; preds = %sw.bb14, %sw.bb8, %sw.bb3, %sw.bb, %entry
  tail call void @abort() #15
  unreachable

return.sink.split:                                ; preds = %sw.bb14, %sw.bb8, %sw.bb3, %sw.bb
  %switch.table._ZN6icu_756number4impl18PatternStringUtils18resolveSignDisplayE18UNumberSignDisplayNS1_6SignumE.3.sink = phi ptr [ @switch.table._ZN6icu_756number4impl18PatternStringUtils18resolveSignDisplayE18UNumberSignDisplayNS1_6SignumE, %sw.bb ], [ @switch.table._ZN6icu_756number4impl18PatternStringUtils18resolveSignDisplayE18UNumberSignDisplayNS1_6SignumE.1, %sw.bb3 ], [ @switch.table._ZN6icu_756number4impl18PatternStringUtils18resolveSignDisplayE18UNumberSignDisplayNS1_6SignumE.2, %sw.bb8 ], [ @switch.table._ZN6icu_756number4impl18PatternStringUtils18resolveSignDisplayE18UNumberSignDisplayNS1_6SignumE.3, %sw.bb14 ]
  %4 = sext i32 %signum to i64
  %switch.gep11 = getelementptr inbounds [4 x i32], ptr %switch.table._ZN6icu_756number4impl18PatternStringUtils18resolveSignDisplayE18UNumberSignDisplayNS1_6SignumE.3.sink, i64 0, i64 %4
  %switch.load12 = load i32, ptr %switch.gep11, align 4
  br label %return

return:                                           ; preds = %return.sink.split, %entry
  %retval.0 = phi i32 [ 0, %entry ], [ %switch.load12, %return.sink.split ]
  ret i32 %retval.0
}